; Function Attrs: nounwind uwtable
define range(i32 -1, -2147483648) i32 @H5F__try_extend(ptr noundef %0, i32 noundef %1, i64 noundef %2, i64 noundef %3) local_unnamed_addr #0 {
  %5 = load i8, ptr @H5F_init_g, align 1, !tbaa !3, !range !7, !noundef !8
  %6 = trunc nuw i8 %5 to i1
  %7 = load i8, ptr @H5_libterm_g, align 1, !range !7
  %8 = trunc nuw i8 %7 to i1
  %9 = xor i1 %8, true
  %10 = select i1 %6, i1 true, i1 %9
  br i1 %10, label %11, label %21, !prof !9

11:                                               ; preds = %4
  %12 = getelementptr inbounds nuw i8, ptr %0, i64 16
  %13 = load ptr, ptr %12, align 8, !tbaa !10
  %14 = load ptr, ptr %13, align 8, !tbaa !42
  %15 = tail call i32 @H5FD_try_extend(ptr noundef %14, i32 noundef %1, ptr noundef %0, i64 noundef %2, i64 noundef %3) #2
  %16 = icmp slt i32 %15, 0
  br i1 %16, label %17, label %21

17:                                               ; preds = %11
  %18 = load i64, ptr @H5E_FILE_g, align 8, !tbaa !40
  %19 = load i64, ptr @H5E_CANTEXTEND_g, align 8, !tbaa !40
  %20 = tail call i32 (ptr, ptr, i32, i64, i64, ptr, ...) @H5E_printf_stack(ptr noundef nonnull @.str, ptr noundef nonnull @__func__.H5F__try_extend, i32 noundef 192, i64 noundef %18, i64 noundef %19, ptr noundef nonnull @.str.6) #2
  br label %21

21:                                               ; preds = %17, %11, %4
  %.0 = phi i32 [ -1, %17 ], [ %15, %11 ], [ 0, %4 ]
  ret i32 %.0
}